(dp0
S'task23'
p1
(iclasses.tasks.task
Task
p2
(dp3
S'complete'
p4
I00
sS'name'
p5
g1
sS'deadline'
p6
I450
sS'auctioned'
p7
I01
sS'sub_tasks'
p8
(lp9
(iclasses.tasks.sub_task
SubTask
p10
(dp11
S'path_to_dispenser_id'
p12
I5274341
sS'distance_to_dispenser'
p13
I15
sS'sub_task_name'
p14
S'task23_1_1'
p15
sS'submit_behaviour'
p16
I00
sS'type'
p17
S'b1'
p18
sS'parent_task_name'
p19
g1
sS'meeting_point'
p20
cnumpy.core.multiarray
_reconstruct
p21
(cnumpy
ndarray
p22
(I0
tp23
S'b'
p24
tp25
Rp26
(I1
(I2
tp27
cnumpy
dtype
p28
(S'i8'
p29
I0
I1
tp30
Rp31
(I3
S'<'
p32
NNNI-1
I-1
I0
tp33
bI00
S'\xfe\xff\xff\xff\xff\xff\xff\xff\xf8\xff\xff\xff\xff\xff\xff\xff'
p34
tp35
bsS'position'
p36
g21
(g22
(I0
tp37
g24
tp38
Rp39
(I1
(I2
tp40
g31
I00
S'\x01\x00\x00\x00\x00\x00\x00\x00\x01\x00\x00\x00\x00\x00\x00\x00'
p41
tp42
bsS'path_to_meeting_point_id'
p43
NsS'closest_dispenser_position'
p44
g21
(g22
(I0
tp45
g24
tp46
Rp47
(I1
(I2
tp48
g31
I00
S'\n\x00\x00\x00\x00\x00\x00\x00\x08\x00\x00\x00\x00\x00\x00\x00'
p49
tp50
bsS'assigned_agent'
p51
S'agentA7'
p52
sS'is_connected'
p53
I00
sg4
I00
sba(iclasses.tasks.sub_task
SubTask
p54
(dp55
g12
I9753155
sg13
I14
sg14
S'task23_0_1'
p56
sg16
I01
sg17
S'b0'
p57
sg19
g1
sg20
g21
(g22
(I0
tp58
g24
tp59
Rp60
(I1
(I2
tp61
g31
I00
S'\xfe\xff\xff\xff\xff\xff\xff\xff\xf8\xff\xff\xff\xff\xff\xff\xff'
p62
tp63
bsg36
g21
(g22
(I0
tp64
g24
tp65
Rp66
(I1
(I2
tp67
g31
I00
S'\x00\x00\x00\x00\x00\x00\x00\x00\x01\x00\x00\x00\x00\x00\x00\x00'
p68
tp69
bsg43
Nsg44
g21
(g22
(I0
tp70
g24
tp71
Rp72
(I1
(I2
tp73
g31
I00
S'\xf7\xff\xff\xff\xff\xff\xff\xff\x08\x00\x00\x00\x00\x00\x00\x00'
p74
tp75
bsg51
S'agentA6'
p76
sg53
I00
sg4
I00
sbasS'reward'
p77
I40
sS'expired'
p78
I00
sS'task_percept'
p79
ccopy_reg
_reconstructor
p80
(cmapc_ros_bridge.msg._Task
Task
p81
c__builtin__
object
p82
Ntp83
Rp84
(lp85
I450
ag1
aI40
a(lp86
g80
(cmapc_ros_bridge.msg._Requirement
Requirement
p87
g82
Ntp88
Rp89
(lp90
g80
(cmapc_ros_bridge.msg._Position
Position
p91
g82
Ntp92
Rp93
(lp94
I1
aI1
abaS''
p95
ag18
abag80
(g87
g82
Ntp96
Rp97
(lp98
g80
(g91
g82
Ntp99
Rp100
(lp101
I0
aI1
abag95
ag57
abaabsbsS'task22'
p102
(iclasses.tasks.task
Task
p103
(dp104
g4
I00
sg5
g102
sg6
I505
sg7
I00
sg8
(lp105
(iclasses.tasks.sub_task
SubTask
p106
(dp107
g12
Nsg13
Nsg14
S'task22_-1_2'
p108
sg16
I00
sg17
S'b1'
p109
sg19
g102
sg20
Nsg36
g21
(g22
(I0
tp110
g24
tp111
Rp112
(I1
(I2
tp113
g31
I00
S'\xff\xff\xff\xff\xff\xff\xff\xff\x02\x00\x00\x00\x00\x00\x00\x00'
p114
tp115
bsg43
Nsg44
Nsg51
Nsg53
I00
sg4
I00
sba(iclasses.tasks.sub_task
SubTask
p116
(dp117
g12
Nsg13
Nsg14
S'task22_0_1'
p118
sg16
I00
sg17
S'b0'
p119
sg19
g102
sg20
Nsg36
g21
(g22
(I0
tp120
g24
tp121
Rp122
(I1
(I2
tp123
g31
I00
S'\x00\x00\x00\x00\x00\x00\x00\x00\x01\x00\x00\x00\x00\x00\x00\x00'
p124
tp125
bsg43
Nsg44
Nsg51
Nsg53
I00
sg4
I00
sba(iclasses.tasks.sub_task
SubTask
p126
(dp127
g12
Nsg13
Nsg14
S'task22_0_2'
p128
sg16
I00
sg17
S'b2'
p129
sg19
g102
sg20
Nsg36
g21
(g22
(I0
tp130
g24
tp131
Rp132
(I1
(I2
tp133
g31
I00
S'\x00\x00\x00\x00\x00\x00\x00\x00\x02\x00\x00\x00\x00\x00\x00\x00'
p134
tp135
bsg43
Nsg44
Nsg51
Nsg53
I00
sg4
I00
sba(iclasses.tasks.sub_task
SubTask
p136
(dp137
g12
Nsg13
Nsg14
S'task22_-2_2'
p138
sg16
I00
sg17
S'b2'
p139
sg19
g102
sg20
Nsg36
g21
(g22
(I0
tp140
g24
tp141
Rp142
(I1
(I2
tp143
g31
I00
S'\xfe\xff\xff\xff\xff\xff\xff\xff\x02\x00\x00\x00\x00\x00\x00\x00'
p144
tp145
bsg43
Nsg44
Nsg51
Nsg53
I00
sg4
I00
sbasg77
I160
sg78
I00
sg79
g80
(g81
g82
Ntp146
Rp147
(lp148
I505
ag102
aI160
a(lp149
g80
(g87
g82
Ntp150
Rp151
(lp152
g80
(g91
g82
Ntp153
Rp154
(lp155
I-1
aI2
abag95
ag109
abag80
(g87
g82
Ntp156
Rp157
(lp158
g80
(g91
g82
Ntp159
Rp160
(lp161
I0
aI1
abag95
ag119
abag80
(g87
g82
Ntp162
Rp163
(lp164
g80
(g91
g82
Ntp165
Rp166
(lp167
I0
aI2
abag95
ag129
abag80
(g87
g82
Ntp168
Rp169
(lp170
g80
(g91
g82
Ntp171
Rp172
(lp173
I-2
aI2
abag95
ag139
abaabsbsS'task21'
p174
(iclasses.tasks.task
Task
p175
(dp176
g4
I00
sg5
g174
sg6
I402
sg7
I00
sg8
(lp177
(iclasses.tasks.sub_task
SubTask
p178
(dp179
g12
Nsg13
Nsg14
S'task21_0_1'
p180
sg16
I00
sg17
S'b0'
p181
sg19
g174
sg20
Nsg36
g21
(g22
(I0
tp182
g24
tp183
Rp184
(I1
(I2
tp185
g31
I00
S'\x00\x00\x00\x00\x00\x00\x00\x00\x01\x00\x00\x00\x00\x00\x00\x00'
p186
tp187
bsg43
Nsg44
Nsg51
Nsg53
I00
sg4
I00
sba(iclasses.tasks.sub_task
SubTask
p188
(dp189
g12
Nsg13
Nsg14
S'task21_0_2'
p190
sg16
I00
sg17
S'b2'
p191
sg19
g174
sg20
Nsg36
g21
(g22
(I0
tp192
g24
tp193
Rp194
(I1
(I2
tp195
g31
I00
S'\x00\x00\x00\x00\x00\x00\x00\x00\x02\x00\x00\x00\x00\x00\x00\x00'
p196
tp197
bsg43
Nsg44
Nsg51
Nsg53
I00
sg4
I00
sba(iclasses.tasks.sub_task
SubTask
p198
(dp199
g12
Nsg13
Nsg14
S'task21_-1_2'
p200
sg16
I00
sg17
S'b1'
p201
sg19
g174
sg20
Nsg36
g21
(g22
(I0
tp202
g24
tp203
Rp204
(I1
(I2
tp205
g31
I00
S'\xff\xff\xff\xff\xff\xff\xff\xff\x02\x00\x00\x00\x00\x00\x00\x00'
p206
tp207
bsg43
Nsg44
Nsg51
Nsg53
I00
sg4
I00
sbasg77
I90
sg78
I00
sg79
g80
(g81
g82
Ntp208
Rp209
(lp210
I402
ag174
aI90
a(lp211
g80
(g87
g82
Ntp212
Rp213
(lp214
g80
(g91
g82
Ntp215
Rp216
(lp217
I0
aI1
abag95
ag181
abag80
(g87
g82
Ntp218
Rp219
(lp220
g80
(g91
g82
Ntp221
Rp222
(lp223
I0
aI2
abag95
ag191
abag80
(g87
g82
Ntp224
Rp225
(lp226
g80
(g91
g82
Ntp227
Rp228
(lp229
I-1
aI2
abag95
ag201
abaabsbsS'task20'
p230
(iclasses.tasks.task
Task
p231
(dp232
g4
I00
sg5
g230
sg6
I386
sg7
I01
sg8
(lp233
(iclasses.tasks.sub_task
SubTask
p234
(dp235
g12
I5316951
sg13
I19
sg14
S'task20_-1_1'
p236
sg16
I00
sg17
S'b0'
p237
sg19
g230
sg20
g21
(g22
(I0
tp238
g24
tp239
Rp240
(I1
(I2
tp241
g31
I00
S'\xfe\xff\xff\xff\xff\xff\xff\xff\xf8\xff\xff\xff\xff\xff\xff\xff'
p242
tp243
bsg36
g21
(g22
(I0
tp244
g24
tp245
Rp246
(I1
(I2
tp247
g31
I00
S'\xff\xff\xff\xff\xff\xff\xff\xff\x01\x00\x00\x00\x00\x00\x00\x00'
p248
tp249
bsg43
Nsg44
g21
(g22
(I0
tp250
g24
tp251
Rp252
(I1
(I2
tp253
g31
I00
S'\xf7\xff\xff\xff\xff\xff\xff\xff\x08\x00\x00\x00\x00\x00\x00\x00'
p254
tp255
bsg51
S'agentA2'
p256
sg53
I00
sg4
I00
sba(iclasses.tasks.sub_task
SubTask
p257
(dp258
g12
I6118625
sg13
I0
sg14
S'task20_0_1'
p259
sg16
I01
sg17
S'b0'
p260
sg19
g230
sg20
g21
(g22
(I0
tp261
g24
tp262
Rp263
(I1
(I2
tp264
g31
I00
S'\xfe\xff\xff\xff\xff\xff\xff\xff\xf8\xff\xff\xff\xff\xff\xff\xff'
p265
tp266
bsg36
g21
(g22
(I0
tp267
g24
tp268
Rp269
(I1
(I2
tp270
g31
I00
S'\x00\x00\x00\x00\x00\x00\x00\x00\x01\x00\x00\x00\x00\x00\x00\x00'
p271
tp272
bsg43
Nsg44
g21
(g22
(I0
tp273
g24
tp274
Rp275
(I1
(I2
tp276
g31
I00
S'\xf7\xff\xff\xff\xff\xff\xff\xff\x08\x00\x00\x00\x00\x00\x00\x00'
p277
tp278
bsg51
S'agentA7'
p279
sg53
I00
sg4
I00
sbasg77
I40
sg78
I00
sg79
g80
(g81
g82
Ntp280
Rp281
(lp282
I386
ag230
aI40
a(lp283
g80
(g87
g82
Ntp284
Rp285
(lp286
g80
(g91
g82
Ntp287
Rp288
(lp289
I-1
aI1
abag95
ag237
abag80
(g87
g82
Ntp290
Rp291
(lp292
g80
(g91
g82
Ntp293
Rp294
(lp295
I0
aI1
abag95
ag260
abaabsbsS'task26'
p296
(iclasses.tasks.task
Task
p297
(dp298
g4
I00
sg5
g296
sg6
I478
sg7
I00
sg8
(lp299
(iclasses.tasks.sub_task
SubTask
p300
(dp301
g12
I9468790
sg13
I11
sg14
S'task26_1_1'
p302
sg16
I00
sg17
S'b1'
p303
sg19
g296
sg20
g21
(g22
(I0
tp304
g24
tp305
Rp306
(I1
(I2
tp307
g31
I00
S'\xfe\xff\xff\xff\xff\xff\xff\xff\xf8\xff\xff\xff\xff\xff\xff\xff'
p308
tp309
bsg36
g21
(g22
(I0
tp310
g24
tp311
Rp312
(I1
(I2
tp313
g31
I00
S'\x01\x00\x00\x00\x00\x00\x00\x00\x01\x00\x00\x00\x00\x00\x00\x00'
p314
tp315
bsg43
Nsg44
g21
(g22
(I0
tp316
g24
tp317
Rp318
(I1
(I2
tp319
g31
I00
S'\n\x00\x00\x00\x00\x00\x00\x00\x08\x00\x00\x00\x00\x00\x00\x00'
p320
tp321
bsg51
S'agentA5'
p322
sg53
I00
sg4
I00
sba(iclasses.tasks.sub_task
SubTask
p323
(dp324
g12
I3904360
sg13
I26
sg14
S'task26_0_1'
p325
sg16
I00
sg17
S'b0'
p326
sg19
g296
sg20
g21
(g22
(I0
tp327
g24
tp328
Rp329
(I1
(I2
tp330
g31
I00
S'\xfe\xff\xff\xff\xff\xff\xff\xff\xf8\xff\xff\xff\xff\xff\xff\xff'
p331
tp332
bsg36
g21
(g22
(I0
tp333
g24
tp334
Rp335
(I1
(I2
tp336
g31
I00
S'\x00\x00\x00\x00\x00\x00\x00\x00\x01\x00\x00\x00\x00\x00\x00\x00'
p337
tp338
bsg43
Nsg44
g21
(g22
(I0
tp339
g24
tp340
Rp341
(I1
(I2
tp342
g31
I00
S'\xf7\xff\xff\xff\xff\xff\xff\xff\x08\x00\x00\x00\x00\x00\x00\x00'
p343
tp344
bsg51
S'agentA2'
p345
sg53
I00
sg4
I00
sbasg77
I40
sg78
I00
sg79
g80
(g81
g82
Ntp346
Rp347
(lp348
I478
ag296
aI40
a(lp349
g80
(g87
g82
Ntp350
Rp351
(lp352
g80
(g91
g82
Ntp353
Rp354
(lp355
I1
aI1
abag95
ag303
abag80
(g87
g82
Ntp356
Rp357
(lp358
g80
(g91
g82
Ntp359
Rp360
(lp361
I0
aI1
abag95
ag326
abaabsbsS'task25'
p362
(iclasses.tasks.task
Task
p363
(dp364
g4
I00
sg5
g362
sg6
I442
sg7
I00
sg8
(lp365
(iclasses.tasks.sub_task
SubTask
p366
(dp367
g12
Nsg13
Nsg14
S'task25_1_2'
p368
sg16
I00
sg17
S'b0'
p369
sg19
g362
sg20
Nsg36
g21
(g22
(I0
tp370
g24
tp371
Rp372
(I1
(I2
tp373
g31
I00
S'\x01\x00\x00\x00\x00\x00\x00\x00\x02\x00\x00\x00\x00\x00\x00\x00'
p374
tp375
bsg43
Nsg44
Nsg51
Nsg53
I00
sg4
I00
sba(iclasses.tasks.sub_task
SubTask
p376
(dp377
g12
Nsg13
Nsg14
S'task25_0_1'
p378
sg16
I00
sg17
S'b1'
p379
sg19
g362
sg20
Nsg36
g21
(g22
(I0
tp380
g24
tp381
Rp382
(I1
(I2
tp383
g31
I00
S'\x00\x00\x00\x00\x00\x00\x00\x00\x01\x00\x00\x00\x00\x00\x00\x00'
p384
tp385
bsg43
Nsg44
Nsg51
Nsg53
I00
sg4
I00
sba(iclasses.tasks.sub_task
SubTask
p386
(dp387
g12
Nsg13
Nsg14
S'task25_1_1'
p388
sg16
I00
sg17
S'b1'
p389
sg19
g362
sg20
Nsg36
g21
(g22
(I0
tp390
g24
tp391
Rp392
(I1
(I2
tp393
g31
I00
S'\x01\x00\x00\x00\x00\x00\x00\x00\x01\x00\x00\x00\x00\x00\x00\x00'
p394
tp395
bsg43
Nsg44
Nsg51
Nsg53
I00
sg4
I00
sbasg77
I90
sg78
I00
sg79
g80
(g81
g82
Ntp396
Rp397
(lp398
I442
ag362
aI90
a(lp399
g80
(g87
g82
Ntp400
Rp401
(lp402
g80
(g91
g82
Ntp403
Rp404
(lp405
I1
aI2
abag95
ag369
abag80
(g87
g82
Ntp406
Rp407
(lp408
g80
(g91
g82
Ntp409
Rp410
(lp411
I0
aI1
abag95
ag379
abag80
(g87
g82
Ntp412
Rp413
(lp414
g80
(g91
g82
Ntp415
Rp416
(lp417
I1
aI1
abag95
ag389
abaabsbsS'task24'
p418
(iclasses.tasks.task
Task
p419
(dp420
g4
I00
sg5
g418
sg6
I463
sg7
I01
sg8
(lp421
(iclasses.tasks.sub_task
SubTask
p422
(dp423
g12
I2493757
sg13
I11
sg14
S'task24_0_1'
p424
sg16
I01
sg17
S'b1'
p425
sg19
g418
sg20
g21
(g22
(I0
tp426
g24
tp427
Rp428
(I1
(I2
tp429
g31
I00
S'\xfe\xff\xff\xff\xff\xff\xff\xff\xf8\xff\xff\xff\xff\xff\xff\xff'
p430
tp431
bsg36
g21
(g22
(I0
tp432
g24
tp433
Rp434
(I1
(I2
tp435
g31
I00
S'\x00\x00\x00\x00\x00\x00\x00\x00\x01\x00\x00\x00\x00\x00\x00\x00'
p436
tp437
bsg43
Nsg44
g21
(g22
(I0
tp438
g24
tp439
Rp440
(I1
(I2
tp441
g31
I00
S'\n\x00\x00\x00\x00\x00\x00\x00\x08\x00\x00\x00\x00\x00\x00\x00'
p442
tp443
bsg51
S'agentA5'
p444
sg53
I00
sg4
I00
sba(iclasses.tasks.sub_task
SubTask
p445
(dp446
g12
I3146564
sg13
I12
sg14
S'task24_-1_1'
p447
sg16
I00
sg17
S'b2'
p448
sg19
g418
sg20
g21
(g22
(I0
tp449
g24
tp450
Rp451
(I1
(I2
tp452
g31
I00
S'\xfe\xff\xff\xff\xff\xff\xff\xff\xf8\xff\xff\xff\xff\xff\xff\xff'
p453
tp454
bsg36
g21
(g22
(I0
tp455
g24
tp456
Rp457
(I1
(I2
tp458
g31
I00
S'\xff\xff\xff\xff\xff\xff\xff\xff\x01\x00\x00\x00\x00\x00\x00\x00'
p459
tp460
bsg43
Nsg44
g21
(g22
(I0
tp461
g24
tp462
Rp463
(I1
(I2
tp464
g31
I00
S'\xff\xff\xff\xff\xff\xff\xff\xff\x11\x00\x00\x00\x00\x00\x00\x00'
p465
tp466
bsg51
S'agentA7'
p467
sg53
I00
sg4
I00
sbasg77
I40
sg78
I00
sg79
g80
(g81
g82
Ntp468
Rp469
(lp470
I463
ag418
aI40
a(lp471
g80
(g87
g82
Ntp472
Rp473
(lp474
g80
(g91
g82
Ntp475
Rp476
(lp477
I0
aI1
abag95
ag425
abag80
(g87
g82
Ntp478
Rp479
(lp480
g80
(g91
g82
Ntp481
Rp482
(lp483
I-1
aI1
abag95
ag448
abaabsbsS'task0'
p484
(iclasses.tasks.task
Task
p485
(dp486
g4
I00
sg5
g484
sg6
I188
sg7
I01
sg8
(lp487
(iclasses.tasks.sub_task
SubTask
p488
(dp489
g12
Nsg13
I9999
sg14
S'task0_0_1'
p490
sg16
I01
sg17
S'b0'
p491
sg19
g484
sg20
Nsg36
g21
(g22
(I0
tp492
g24
tp493
Rp494
(I1
(I2
tp495
g31
I00
S'\x00\x00\x00\x00\x00\x00\x00\x00\x01\x00\x00\x00\x00\x00\x00\x00'
p496
tp497
bsg43
Nsg44
g21
(g22
(I0
tp498
g24
tp499
Rp500
(I1
(I2
tp501
g31
I00
S'\xc0\xbd\xf0\xff\xff\xff\xff\xff\xc0\xbd\xf0\xff\xff\xff\xff\xff'
p502
tp503
bsg51
S'agentA5'
p504
sg53
I00
sg4
I00
sba(iclasses.tasks.sub_task
SubTask
p505
(dp506
g12
I7279365
sg13
I9999
sg14
S'task0_0_2'
p507
sg16
I00
sg17
S'b1'
p508
sg19
g484
sg20
g21
(g22
(I0
tp509
g24
tp510
Rp511
(I1
(I2
tp512
g31
I00
S'\xfe\xff\xff\xff\xff\xff\xff\xff\xf8\xff\xff\xff\xff\xff\xff\xff'
p513
tp514
bsg36
g21
(g22
(I0
tp515
g24
tp516
Rp517
(I1
(I2
tp518
g31
I00
S'\x00\x00\x00\x00\x00\x00\x00\x00\x02\x00\x00\x00\x00\x00\x00\x00'
p519
tp520
bsg43
Nsg44
g21
(g22
(I0
tp521
g24
tp522
Rp523
(I1
(I2
tp524
g31
I00
S'\xc0\xbd\xf0\xff\xff\xff\xff\xff\xc0\xbd\xf0\xff\xff\xff\xff\xff'
p525
tp526
bsg51
S'agentA4'
p527
sg53
I00
sg4
I00
sbasg77
I40
sg78
I01
sg79
g80
(g81
g82
Ntp528
Rp529
(lp530
I188
ag484
aI40
a(lp531
g80
(g87
g82
Ntp532
Rp533
(lp534
g80
(g91
g82
Ntp535
Rp536
(lp537
I0
aI1
abag95
ag491
abag80
(g87
g82
Ntp538
Rp539
(lp540
g80
(g91
g82
Ntp541
Rp542
(lp543
I0
aI2
abag95
ag508
abaabsbsS'task1'
p544
(iclasses.tasks.task
Task
p545
(dp546
g4
I00
sg5
g544
sg6
I173
sg7
I00
sg8
(lp547
(iclasses.tasks.sub_task
SubTask
p548
(dp549
g12
Nsg13
Nsg14
S'task1_1_3'
p550
sg16
I00
sg17
S'b0'
p551
sg19
g544
sg20
Nsg36
g21
(g22
(I0
tp552
g24
tp553
Rp554
(I1
(I2
tp555
g31
I00
S'\x01\x00\x00\x00\x00\x00\x00\x00\x03\x00\x00\x00\x00\x00\x00\x00'
p556
tp557
bsg43
Nsg44
Nsg51
Nsg53
I00
sg4
I00
sba(iclasses.tasks.sub_task
SubTask
p558
(dp559
g12
Nsg13
Nsg14
S'task1_0_1'
p560
sg16
I00
sg17
S'b2'
p561
sg19
g544
sg20
Nsg36
g21
(g22
(I0
tp562
g24
tp563
Rp564
(I1
(I2
tp565
g31
I00
S'\x00\x00\x00\x00\x00\x00\x00\x00\x01\x00\x00\x00\x00\x00\x00\x00'
p566
tp567
bsg43
Nsg44
Nsg51
Nsg53
I00
sg4
I00
sba(iclasses.tasks.sub_task
SubTask
p568
(dp569
g12
Nsg13
Nsg14
S'task1_1_1'
p570
sg16
I00
sg17
S'b2'
p571
sg19
g544
sg20
Nsg36
g21
(g22
(I0
tp572
g24
tp573
Rp574
(I1
(I2
tp575
g31
I00
S'\x01\x00\x00\x00\x00\x00\x00\x00\x01\x00\x00\x00\x00\x00\x00\x00'
p576
tp577
bsg43
Nsg44
Nsg51
Nsg53
I00
sg4
I00
sba(iclasses.tasks.sub_task
SubTask
p578
(dp579
g12
Nsg13
Nsg14
S'task1_1_2'
p580
sg16
I00
sg17
S'b1'
p581
sg19
g544
sg20
Nsg36
g21
(g22
(I0
tp582
g24
tp583
Rp584
(I1
(I2
tp585
g31
I00
S'\x01\x00\x00\x00\x00\x00\x00\x00\x02\x00\x00\x00\x00\x00\x00\x00'
p586
tp587
bsg43
Nsg44
Nsg51
Nsg53
I00
sg4
I00
sbasg77
I160
sg78
I01
sg79
g80
(g81
g82
Ntp588
Rp589
(lp590
I173
ag544
aI160
a(lp591
g80
(g87
g82
Ntp592
Rp593
(lp594
g80
(g91
g82
Ntp595
Rp596
(lp597
I1
aI3
abag95
ag551
abag80
(g87
g82
Ntp598
Rp599
(lp600
g80
(g91
g82
Ntp601
Rp602
(lp603
I0
aI1
abag95
ag561
abag80
(g87
g82
Ntp604
Rp605
(lp606
g80
(g91
g82
Ntp607
Rp608
(lp609
I1
aI1
abag95
ag571
abag80
(g87
g82
Ntp610
Rp611
(lp612
g80
(g91
g82
Ntp613
Rp614
(lp615
I1
aI2
abag95
ag581
abaabsbsS'task2'
p616
(iclasses.tasks.task
Task
p617
(dp618
g4
I00
sg5
g616
sg6
I200
sg7
I00
sg8
(lp619
(iclasses.tasks.sub_task
SubTask
p620
(dp621
g12
Nsg13
Nsg14
S'task2_-1_2'
p622
sg16
I00
sg17
S'b1'
p623
sg19
g616
sg20
Nsg36
g21
(g22
(I0
tp624
g24
tp625
Rp626
(I1
(I2
tp627
g31
I00
S'\xff\xff\xff\xff\xff\xff\xff\xff\x02\x00\x00\x00\x00\x00\x00\x00'
p628
tp629
bsg43
Nsg44
Nsg51
Nsg53
I00
sg4
I00
sba(iclasses.tasks.sub_task
SubTask
p630
(dp631
g12
Nsg13
Nsg14
S'task2_0_1'
p632
sg16
I00
sg17
S'b0'
p633
sg19
g616
sg20
Nsg36
g21
(g22
(I0
tp634
g24
tp635
Rp636
(I1
(I2
tp637
g31
I00
S'\x00\x00\x00\x00\x00\x00\x00\x00\x01\x00\x00\x00\x00\x00\x00\x00'
p638
tp639
bsg43
Nsg44
Nsg51
Nsg53
I00
sg4
I00
sba(iclasses.tasks.sub_task
SubTask
p640
(dp641
g12
Nsg13
Nsg14
S'task2_0_2'
p642
sg16
I00
sg17
S'b0'
p643
sg19
g616
sg20
Nsg36
g21
(g22
(I0
tp644
g24
tp645
Rp646
(I1
(I2
tp647
g31
I00
S'\x00\x00\x00\x00\x00\x00\x00\x00\x02\x00\x00\x00\x00\x00\x00\x00'
p648
tp649
bsg43
Nsg44
Nsg51
Nsg53
I00
sg4
I00
sbasg77
I90
sg78
I01
sg79
g80
(g81
g82
Ntp650
Rp651
(lp652
I200
ag616
aI90
a(lp653
g80
(g87
g82
Ntp654
Rp655
(lp656
g80
(g91
g82
Ntp657
Rp658
(lp659
I-1
aI2
abag95
ag623
abag80
(g87
g82
Ntp660
Rp661
(lp662
g80
(g91
g82
Ntp663
Rp664
(lp665
I0
aI1
abag95
ag633
abag80
(g87
g82
Ntp666
Rp667
(lp668
g80
(g91
g82
Ntp669
Rp670
(lp671
I0
aI2
abag95
ag643
abaabsbsS'task3'
p672
(iclasses.tasks.task
Task
p673
(dp674
g4
I00
sg5
g672
sg6
I174
sg7
I01
sg8
(lp675
(iclasses.tasks.sub_task
SubTask
p676
(dp677
g12
Nsg13
I17
sg14
S'task3_0_1'
p678
sg16
I01
sg17
S'b1'
p679
sg19
g672
sg20
Nsg36
g21
(g22
(I0
tp680
g24
tp681
Rp682
(I1
(I2
tp683
g31
I00
S'\x00\x00\x00\x00\x00\x00\x00\x00\x01\x00\x00\x00\x00\x00\x00\x00'
p684
tp685
bsg43
Nsg44
g21
(g22
(I0
tp686
g24
tp687
Rp688
(I1
(I2
tp689
g31
I00
S'\n\x00\x00\x00\x00\x00\x00\x00\x08\x00\x00\x00\x00\x00\x00\x00'
p690
tp691
bsg51
S'agentA5'
p692
sg53
I00
sg4
I00
sba(iclasses.tasks.sub_task
SubTask
p693
(dp694
g12
I1183019
sg13
I9999
sg14
S'task3_0_2'
p695
sg16
I00
sg17
S'b0'
p696
sg19
g672
sg20
g21
(g22
(I0
tp697
g24
tp698
Rp699
(I1
(I2
tp700
g31
I00
S'\xfe\xff\xff\xff\xff\xff\xff\xff\xf8\xff\xff\xff\xff\xff\xff\xff'
p701
tp702
bsg36
g21
(g22
(I0
tp703
g24
tp704
Rp705
(I1
(I2
tp706
g31
I00
S'\x00\x00\x00\x00\x00\x00\x00\x00\x02\x00\x00\x00\x00\x00\x00\x00'
p707
tp708
bsg43
Nsg44
g21
(g22
(I0
tp709
g24
tp710
Rp711
(I1
(I2
tp712
g31
I00
S'\xc0\xbd\xf0\xff\xff\xff\xff\xff\xc0\xbd\xf0\xff\xff\xff\xff\xff'
p713
tp714
bsg51
S'agentA4'
p715
sg53
I00
sg4
I00
sbasg77
I40
sg78
I01
sg79
g80
(g81
g82
Ntp716
Rp717
(lp718
I174
ag672
aI40
a(lp719
g80
(g87
g82
Ntp720
Rp721
(lp722
g80
(g91
g82
Ntp723
Rp724
(lp725
I0
aI1
abag95
ag679
abag80
(g87
g82
Ntp726
Rp727
(lp728
g80
(g91
g82
Ntp729
Rp730
(lp731
I0
aI2
abag95
ag696
abaabsbsS'task4'
p732
(iclasses.tasks.task
Task
p733
(dp734
g4
I00
sg5
g732
sg6
I236
sg7
I01
sg8
(lp735
(iclasses.tasks.sub_task
SubTask
p736
(dp737
g12
Nsg13
I17
sg14
S'task4_0_1'
p738
sg16
I01
sg17
S'b1'
p739
sg19
g732
sg20
Nsg36
g21
(g22
(I0
tp740
g24
tp741
Rp742
(I1
(I2
tp743
g31
I00
S'\x00\x00\x00\x00\x00\x00\x00\x00\x01\x00\x00\x00\x00\x00\x00\x00'
p744
tp745
bsg43
Nsg44
g21
(g22
(I0
tp746
g24
tp747
Rp748
(I1
(I2
tp749
g31
I00
S'\n\x00\x00\x00\x00\x00\x00\x00\x08\x00\x00\x00\x00\x00\x00\x00'
p750
tp751
bsg51
S'agentA5'
p752
sg53
I00
sg4
I00
sba(iclasses.tasks.sub_task
SubTask
p753
(dp754
g12
I4772248
sg13
I21
sg14
S'task4_1_1'
p755
sg16
I00
sg17
S'b2'
p756
sg19
g732
sg20
g21
(g22
(I0
tp757
g24
tp758
Rp759
(I1
(I2
tp760
g31
I00
S'\xfe\xff\xff\xff\xff\xff\xff\xff\xf8\xff\xff\xff\xff\xff\xff\xff'
p761
tp762
bsg36
g21
(g22
(I0
tp763
g24
tp764
Rp765
(I1
(I2
tp766
g31
I00
S'\x01\x00\x00\x00\x00\x00\x00\x00\x01\x00\x00\x00\x00\x00\x00\x00'
p767
tp768
bsg43
Nsg44
g21
(g22
(I0
tp769
g24
tp770
Rp771
(I1
(I2
tp772
g31
I00
S'\x06\x00\x00\x00\x00\x00\x00\x00\xf8\xff\xff\xff\xff\xff\xff\xff'
p773
tp774
bsg51
S'agentA4'
p775
sg53
I00
sg4
I00
sbasg77
I40
sg78
I01
sg79
g80
(g81
g82
Ntp776
Rp777
(lp778
I236
ag732
aI40
a(lp779
g80
(g87
g82
Ntp780
Rp781
(lp782
g80
(g91
g82
Ntp783
Rp784
(lp785
I0
aI1
abag95
ag739
abag80
(g87
g82
Ntp786
Rp787
(lp788
g80
(g91
g82
Ntp789
Rp790
(lp791
I1
aI1
abag95
ag756
abaabsbsS'task5'
p792
(iclasses.tasks.task
Task
p793
(dp794
g4
I00
sg5
g792
sg6
I212
sg7
I00
sg8
(lp795
(iclasses.tasks.sub_task
SubTask
p796
(dp797
g12
Nsg13
Nsg14
S'task5_2_1'
p798
sg16
I00
sg17
S'b0'
p799
sg19
g792
sg20
Nsg36
g21
(g22
(I0
tp800
g24
tp801
Rp802
(I1
(I2
tp803
g31
I00
S'\x02\x00\x00\x00\x00\x00\x00\x00\x01\x00\x00\x00\x00\x00\x00\x00'
p804
tp805
bsg43
Nsg44
Nsg51
Nsg53
I00
sg4
I00
sba(iclasses.tasks.sub_task
SubTask
p806
(dp807
g12
Nsg13
Nsg14
S'task5_1_1'
p808
sg16
I00
sg17
S'b2'
p809
sg19
g792
sg20
Nsg36
g21
(g22
(I0
tp810
g24
tp811
Rp812
(I1
(I2
tp813
g31
I00
S'\x01\x00\x00\x00\x00\x00\x00\x00\x01\x00\x00\x00\x00\x00\x00\x00'
p814
tp815
bsg43
Nsg44
Nsg51
Nsg53
I00
sg4
I00
sba(iclasses.tasks.sub_task
SubTask
p816
(dp817
g12
Nsg13
Nsg14
S'task5_0_1'
p818
sg16
I00
sg17
S'b0'
p819
sg19
g792
sg20
Nsg36
g21
(g22
(I0
tp820
g24
tp821
Rp822
(I1
(I2
tp823
g31
I00
S'\x00\x00\x00\x00\x00\x00\x00\x00\x01\x00\x00\x00\x00\x00\x00\x00'
p824
tp825
bsg43
Nsg44
Nsg51
Nsg53
I00
sg4
I00
sbasg77
I90
sg78
I01
sg79
g80
(g81
g82
Ntp826
Rp827
(lp828
I212
ag792
aI90
a(lp829
g80
(g87
g82
Ntp830
Rp831
(lp832
g80
(g91
g82
Ntp833
Rp834
(lp835
I2
aI1
abag95
ag799
abag80
(g87
g82
Ntp836
Rp837
(lp838
g80
(g91
g82
Ntp839
Rp840
(lp841
I1
aI1
abag95
ag809
abag80
(g87
g82
Ntp842
Rp843
(lp844
g80
(g91
g82
Ntp845
Rp846
(lp847
I0
aI1
abag95
ag819
abaabsbsS'task6'
p848
(iclasses.tasks.task
Task
p849
(dp850
g4
I00
sg5
g848
sg6
I266
sg7
I01
sg8
(lp851
(iclasses.tasks.sub_task
SubTask
p852
(dp853
g12
I3312433
sg13
I21
sg14
S'task6_0_2'
p854
sg16
I00
sg17
S'b1'
p855
sg19
g848
sg20
g21
(g22
(I0
tp856
g24
tp857
Rp858
(I1
(I2
tp859
g31
I00
S'\xfe\xff\xff\xff\xff\xff\xff\xff\xf8\xff\xff\xff\xff\xff\xff\xff'
p860
tp861
bsg36
g21
(g22
(I0
tp862
g24
tp863
Rp864
(I1
(I2
tp865
g31
I00
S'\x00\x00\x00\x00\x00\x00\x00\x00\x02\x00\x00\x00\x00\x00\x00\x00'
p866
tp867
bsg43
Nsg44
g21
(g22
(I0
tp868
g24
tp869
Rp870
(I1
(I2
tp871
g31
I00
S'\n\x00\x00\x00\x00\x00\x00\x00\x08\x00\x00\x00\x00\x00\x00\x00'
p872
tp873
bsg51
S'agentA6'
p874
sg53
I00
sg4
I00
sba(iclasses.tasks.sub_task
SubTask
p875
(dp876
g12
I3325483
sg13
I9999
sg14
S'task6_0_1'
p877
sg16
I01
sg17
S'b0'
p878
sg19
g848
sg20
g21
(g22
(I0
tp879
g24
tp880
Rp881
(I1
(I2
tp882
g31
I00
S'\xfe\xff\xff\xff\xff\xff\xff\xff\xf8\xff\xff\xff\xff\xff\xff\xff'
p883
tp884
bsg36
g21
(g22
(I0
tp885
g24
tp886
Rp887
(I1
(I2
tp888
g31
I00
S'\x00\x00\x00\x00\x00\x00\x00\x00\x01\x00\x00\x00\x00\x00\x00\x00'
p889
tp890
bsg43
Nsg44
g21
(g22
(I0
tp891
g24
tp892
Rp893
(I1
(I2
tp894
g31
I00
S'\xc0\xbd\xf0\xff\xff\xff\xff\xff\xc0\xbd\xf0\xff\xff\xff\xff\xff'
p895
tp896
bsg51
S'agentA4'
p897
sg53
I00
sg4
I00
sbasg77
I40
sg78
I01
sg79
g80
(g81
g82
Ntp898
Rp899
(lp900
I266
ag848
aI40
a(lp901
g80
(g87
g82
Ntp902
Rp903
(lp904
g80
(g91
g82
Ntp905
Rp906
(lp907
I0
aI2
abag95
ag855
abag80
(g87
g82
Ntp908
Rp909
(lp910
g80
(g91
g82
Ntp911
Rp912
(lp913
I0
aI1
abag95
ag878
abaabsbsS'task7'
p914
(iclasses.tasks.task
Task
p915
(dp916
g4
I00
sg5
g914
sg6
I296
sg7
I00
sg8
(lp917
(iclasses.tasks.sub_task
SubTask
p918
(dp919
g12
Nsg13
Nsg14
S'task7_1_1'
p920
sg16
I00
sg17
S'b0'
p921
sg19
g914
sg20
Nsg36
g21
(g22
(I0
tp922
g24
tp923
Rp924
(I1
(I2
tp925
g31
I00
S'\x01\x00\x00\x00\x00\x00\x00\x00\x01\x00\x00\x00\x00\x00\x00\x00'
p926
tp927
bsg43
Nsg44
Nsg51
Nsg53
I00
sg4
I00
sba(iclasses.tasks.sub_task
SubTask
p928
(dp929
g12
Nsg13
Nsg14
S'task7_0_1'
p930
sg16
I00
sg17
S'b2'
p931
sg19
g914
sg20
Nsg36
g21
(g22
(I0
tp932
g24
tp933
Rp934
(I1
(I2
tp935
g31
I00
S'\x00\x00\x00\x00\x00\x00\x00\x00\x01\x00\x00\x00\x00\x00\x00\x00'
p936
tp937
bsg43
Nsg44
Nsg51
Nsg53
I00
sg4
I00
sba(iclasses.tasks.sub_task
SubTask
p938
(dp939
g12
Nsg13
Nsg14
S'task7_-1_1'
p940
sg16
I00
sg17
S'b1'
p941
sg19
g914
sg20
Nsg36
g21
(g22
(I0
tp942
g24
tp943
Rp944
(I1
(I2
tp945
g31
I00
S'\xff\xff\xff\xff\xff\xff\xff\xff\x01\x00\x00\x00\x00\x00\x00\x00'
p946
tp947
bsg43
Nsg44
Nsg51
Nsg53
I00
sg4
I00
sbasg77
I90
sg78
I01
sg79
g80
(g81
g82
Ntp948
Rp949
(lp950
I296
ag914
aI90
a(lp951
g80
(g87
g82
Ntp952
Rp953
(lp954
g80
(g91
g82
Ntp955
Rp956
(lp957
I1
aI1
abag95
ag921
abag80
(g87
g82
Ntp958
Rp959
(lp960
g80
(g91
g82
Ntp961
Rp962
(lp963
I0
aI1
abag95
ag931
abag80
(g87
g82
Ntp964
Rp965
(lp966
g80
(g91
g82
Ntp967
Rp968
(lp969
I-1
aI1
abag95
ag941
abaabsbsS'task8'
p970
(iclasses.tasks.task
Task
p971
(dp972
g4
I00
sg5
g970
sg6
I277
sg7
I01
sg8
(lp973
(iclasses.tasks.sub_task
SubTask
p974
(dp975
g12
I8781094
sg13
I10
sg14
S'task8_0_1'
p976
sg16
I01
sg17
S'b0'
p977
sg19
g970
sg20
g21
(g22
(I0
tp978
g24
tp979
Rp980
(I1
(I2
tp981
g31
I00
S'\xfe\xff\xff\xff\xff\xff\xff\xff\xf8\xff\xff\xff\xff\xff\xff\xff'
p982
tp983
bsg36
g21
(g22
(I0
tp984
g24
tp985
Rp986
(I1
(I2
tp987
g31
I00
S'\x00\x00\x00\x00\x00\x00\x00\x00\x01\x00\x00\x00\x00\x00\x00\x00'
p988
tp989
bsg43
Nsg44
g21
(g22
(I0
tp990
g24
tp991
Rp992
(I1
(I2
tp993
g31
I00
S'\xf7\xff\xff\xff\xff\xff\xff\xff\x08\x00\x00\x00\x00\x00\x00\x00'
p994
tp995
bsg51
S'agentA7'
p996
sg53
I00
sg4
I00
sba(iclasses.tasks.sub_task
SubTask
p997
(dp998
g12
I8775664
sg13
I9
sg14
S'task8_0_2'
p999
sg16
I00
sg17
S'b2'
p1000
sg19
g970
sg20
g21
(g22
(I0
tp1001
g24
tp1002
Rp1003
(I1
(I2
tp1004
g31
I00
S'\xfe\xff\xff\xff\xff\xff\xff\xff\xf8\xff\xff\xff\xff\xff\xff\xff'
p1005
tp1006
bsg36
g21
(g22
(I0
tp1007
g24
tp1008
Rp1009
(I1
(I2
tp1010
g31
I00
S'\x00\x00\x00\x00\x00\x00\x00\x00\x02\x00\x00\x00\x00\x00\x00\x00'
p1011
tp1012
bsg43
Nsg44
g21
(g22
(I0
tp1013
g24
tp1014
Rp1015
(I1
(I2
tp1016
g31
I00
S'\xff\xff\xff\xff\xff\xff\xff\xff\x11\x00\x00\x00\x00\x00\x00\x00'
p1017
tp1018
bsg51
S'agentA6'
p1019
sg53
I00
sg4
I00
sbasg77
I40
sg78
I01
sg79
g80
(g81
g82
Ntp1020
Rp1021
(lp1022
I277
ag970
aI40
a(lp1023
g80
(g87
g82
Ntp1024
Rp1025
(lp1026
g80
(g91
g82
Ntp1027
Rp1028
(lp1029
I0
aI1
abag95
ag977
abag80
(g87
g82
Ntp1030
Rp1031
(lp1032
g80
(g91
g82
Ntp1033
Rp1034
(lp1035
I0
aI2
abag95
ag1000
abaabsbsS'task9'
p1036
(iclasses.tasks.task
Task
p1037
(dp1038
g4
I00
sg5
g1036
sg6
I265
sg7
I00
sg8
(lp1039
(iclasses.tasks.sub_task
SubTask
p1040
(dp1041
g12
Nsg13
Nsg14
S'task9_0_1'
p1042
sg16
I00
sg17
S'b1'
p1043
sg19
g1036
sg20
Nsg36
g21
(g22
(I0
tp1044
g24
tp1045
Rp1046
(I1
(I2
tp1047
g31
I00
S'\x00\x00\x00\x00\x00\x00\x00\x00\x01\x00\x00\x00\x00\x00\x00\x00'
p1048
tp1049
bsg43
Nsg44
Nsg51
Nsg53
I00
sg4
I00
sba(iclasses.tasks.sub_task
SubTask
p1050
(dp1051
g12
Nsg13
Nsg14
S'task9_-1_2'
p1052
sg16
I00
sg17
S'b2'
p1053
sg19
g1036
sg20
Nsg36
g21
(g22
(I0
tp1054
g24
tp1055
Rp1056
(I1
(I2
tp1057
g31
I00
S'\xff\xff\xff\xff\xff\xff\xff\xff\x02\x00\x00\x00\x00\x00\x00\x00'
p1058
tp1059
bsg43
Nsg44
Nsg51
Nsg53
I00
sg4
I00
sba(iclasses.tasks.sub_task
SubTask
p1060
(dp1061
g12
Nsg13
Nsg14
S'task9_-1_1'
p1062
sg16
I00
sg17
S'b0'
p1063
sg19
g1036
sg20
Nsg36
g21
(g22
(I0
tp1064
g24
tp1065
Rp1066
(I1
(I2
tp1067
g31
I00
S'\xff\xff\xff\xff\xff\xff\xff\xff\x01\x00\x00\x00\x00\x00\x00\x00'
p1068
tp1069
bsg43
Nsg44
Nsg51
Nsg53
I00
sg4
I00
sbasg77
I90
sg78
I01
sg79
g80
(g81
g82
Ntp1070
Rp1071
(lp1072
I265
ag1036
aI90
a(lp1073
g80
(g87
g82
Ntp1074
Rp1075
(lp1076
g80
(g91
g82
Ntp1077
Rp1078
(lp1079
I0
aI1
abag95
ag1043
abag80
(g87
g82
Ntp1080
Rp1081
(lp1082
g80
(g91
g82
Ntp1083
Rp1084
(lp1085
I-1
aI2
abag95
ag1053
abag80
(g87
g82
Ntp1086
Rp1087
(lp1088
g80
(g91
g82
Ntp1089
Rp1090
(lp1091
I-1
aI1
abag95
ag1063
abaabsbsS'task18'
p1092
(iclasses.tasks.task
Task
p1093
(dp1094
g4
I00
sg5
g1092
sg6
I452
sg7
I00
sg8
(lp1095
(iclasses.tasks.sub_task
SubTask
p1096
(dp1097
g12
Nsg13
Nsg14
S'task18_-1_2'
p1098
sg16
I00
sg17
S'b1'
p1099
sg19
g1092
sg20
Nsg36
g21
(g22
(I0
tp1100
g24
tp1101
Rp1102
(I1
(I2
tp1103
g31
I00
S'\xff\xff\xff\xff\xff\xff\xff\xff\x02\x00\x00\x00\x00\x00\x00\x00'
p1104
tp1105
bsg43
Nsg44
Nsg51
Nsg53
I00
sg4
I00
sba(iclasses.tasks.sub_task
SubTask
p1106
(dp1107
g12
Nsg13
Nsg14
S'task18_-1_1'
p1108
sg16
I00
sg17
S'b0'
p1109
sg19
g1092
sg20
Nsg36
g21
(g22
(I0
tp1110
g24
tp1111
Rp1112
(I1
(I2
tp1113
g31
I00
S'\xff\xff\xff\xff\xff\xff\xff\xff\x01\x00\x00\x00\x00\x00\x00\x00'
p1114
tp1115
bsg43
Nsg44
Nsg51
Nsg53
I00
sg4
I00
sba(iclasses.tasks.sub_task
SubTask
p1116
(dp1117
g12
Nsg13
Nsg14
S'task18_0_1'
p1118
sg16
I00
sg17
S'b2'
p1119
sg19
g1092
sg20
Nsg36
g21
(g22
(I0
tp1120
g24
tp1121
Rp1122
(I1
(I2
tp1123
g31
I00
S'\x00\x00\x00\x00\x00\x00\x00\x00\x01\x00\x00\x00\x00\x00\x00\x00'
p1124
tp1125
bsg43
Nsg44
Nsg51
Nsg53
I00
sg4
I00
sbasg77
I90
sg78
I00
sg79
g80
(g81
g82
Ntp1126
Rp1127
(lp1128
I452
ag1092
aI90
a(lp1129
g80
(g87
g82
Ntp1130
Rp1131
(lp1132
g80
(g91
g82
Ntp1133
Rp1134
(lp1135
I-1
aI2
abag95
ag1099
abag80
(g87
g82
Ntp1136
Rp1137
(lp1138
g80
(g91
g82
Ntp1139
Rp1140
(lp1141
I-1
aI1
abag95
ag1109
abag80
(g87
g82
Ntp1142
Rp1143
(lp1144
g80
(g91
g82
Ntp1145
Rp1146
(lp1147
I0
aI1
abag95
ag1119
abaabsbsS'task19'
p1148
(iclasses.tasks.task
Task
p1149
(dp1150
g4
I00
sg5
g1148
sg6
I422
sg7
I00
sg8
(lp1151
(iclasses.tasks.sub_task
SubTask
p1152
(dp1153
g12
Nsg13
Nsg14
S'task19_0_2'
p1154
sg16
I00
sg17
S'b1'
p1155
sg19
g1148
sg20
Nsg36
g21
(g22
(I0
tp1156
g24
tp1157
Rp1158
(I1
(I2
tp1159
g31
I00
S'\x00\x00\x00\x00\x00\x00\x00\x00\x02\x00\x00\x00\x00\x00\x00\x00'
p1160
tp1161
bsg43
Nsg44
Nsg51
Nsg53
I00
sg4
I00
sba(iclasses.tasks.sub_task
SubTask
p1162
(dp1163
g12
Nsg13
Nsg14
S'task19_0_1'
p1164
sg16
I00
sg17
S'b2'
p1165
sg19
g1148
sg20
Nsg36
g21
(g22
(I0
tp1166
g24
tp1167
Rp1168
(I1
(I2
tp1169
g31
I00
S'\x00\x00\x00\x00\x00\x00\x00\x00\x01\x00\x00\x00\x00\x00\x00\x00'
p1170
tp1171
bsg43
Nsg44
Nsg51
Nsg53
I00
sg4
I00
sba(iclasses.tasks.sub_task
SubTask
p1172
(dp1173
g12
Nsg13
Nsg14
S'task19_-1_2'
p1174
sg16
I00
sg17
S'b1'
p1175
sg19
g1148
sg20
Nsg36
g21
(g22
(I0
tp1176
g24
tp1177
Rp1178
(I1
(I2
tp1179
g31
I00
S'\xff\xff\xff\xff\xff\xff\xff\xff\x02\x00\x00\x00\x00\x00\x00\x00'
p1180
tp1181
bsg43
Nsg44
Nsg51
Nsg53
I00
sg4
I00
sba(iclasses.tasks.sub_task
SubTask
p1182
(dp1183
g12
Nsg13
Nsg14
S'task19_-2_2'
p1184
sg16
I00
sg17
S'b1'
p1185
sg19
g1148
sg20
Nsg36
g21
(g22
(I0
tp1186
g24
tp1187
Rp1188
(I1
(I2
tp1189
g31
I00
S'\xfe\xff\xff\xff\xff\xff\xff\xff\x02\x00\x00\x00\x00\x00\x00\x00'
p1190
tp1191
bsg43
Nsg44
Nsg51
Nsg53
I00
sg4
I00
sbasg77
I160
sg78
I00
sg79
g80
(g81
g82
Ntp1192
Rp1193
(lp1194
I422
ag1148
aI160
a(lp1195
g80
(g87
g82
Ntp1196
Rp1197
(lp1198
g80
(g91
g82
Ntp1199
Rp1200
(lp1201
I0
aI2
abag95
ag1155
abag80
(g87
g82
Ntp1202
Rp1203
(lp1204
g80
(g91
g82
Ntp1205
Rp1206
(lp1207
I0
aI1
abag95
ag1165
abag80
(g87
g82
Ntp1208
Rp1209
(lp1210
g80
(g91
g82
Ntp1211
Rp1212
(lp1213
I-1
aI2
abag95
ag1175
abag80
(g87
g82
Ntp1214
Rp1215
(lp1216
g80
(g91
g82
Ntp1217
Rp1218
(lp1219
I-2
aI2
abag95
ag1185
abaabsbsS'task12'
p1220
(iclasses.tasks.task
Task
p1221
(dp1222
g4
I00
sg5
g1220
sg6
I376
sg7
I00
sg8
(lp1223
(iclasses.tasks.sub_task
SubTask
p1224
(dp1225
g12
Nsg13
Nsg14
S'task12_1_1'
p1226
sg16
I00
sg17
S'b1'
p1227
sg19
g1220
sg20
Nsg36
g21
(g22
(I0
tp1228
g24
tp1229
Rp1230
(I1
(I2
tp1231
g31
I00
S'\x01\x00\x00\x00\x00\x00\x00\x00\x01\x00\x00\x00\x00\x00\x00\x00'
p1232
tp1233
bsg43
Nsg44
Nsg51
Nsg53
I00
sg4
I00
sba(iclasses.tasks.sub_task
SubTask
p1234
(dp1235
g12
Nsg13
Nsg14
S'task12_0_1'
p1236
sg16
I00
sg17
S'b1'
p1237
sg19
g1220
sg20
Nsg36
g21
(g22
(I0
tp1238
g24
tp1239
Rp1240
(I1
(I2
tp1241
g31
I00
S'\x00\x00\x00\x00\x00\x00\x00\x00\x01\x00\x00\x00\x00\x00\x00\x00'
p1242
tp1243
bsg43
Nsg44
Nsg51
Nsg53
I00
sg4
I00
sba(iclasses.tasks.sub_task
SubTask
p1244
(dp1245
g12
Nsg13
Nsg14
S'task12_1_2'
p1246
sg16
I00
sg17
S'b0'
p1247
sg19
g1220
sg20
Nsg36
g21
(g22
(I0
tp1248
g24
tp1249
Rp1250
(I1
(I2
tp1251
g31
I00
S'\x01\x00\x00\x00\x00\x00\x00\x00\x02\x00\x00\x00\x00\x00\x00\x00'
p1252
tp1253
bsg43
Nsg44
Nsg51
Nsg53
I00
sg4
I00
sba(iclasses.tasks.sub_task
SubTask
p1254
(dp1255
g12
Nsg13
Nsg14
S'task12_0_2'
p1256
sg16
I00
sg17
S'b0'
p1257
sg19
g1220
sg20
Nsg36
g21
(g22
(I0
tp1258
g24
tp1259
Rp1260
(I1
(I2
tp1261
g31
I00
S'\x00\x00\x00\x00\x00\x00\x00\x00\x02\x00\x00\x00\x00\x00\x00\x00'
p1262
tp1263
bsg43
Nsg44
Nsg51
Nsg53
I00
sg4
I00
sbasg77
I160
sg78
I00
sg79
g80
(g81
g82
Ntp1264
Rp1265
(lp1266
I376
ag1220
aI160
a(lp1267
g80
(g87
g82
Ntp1268
Rp1269
(lp1270
g80
(g91
g82
Ntp1271
Rp1272
(lp1273
I1
aI1
abag95
ag1227
abag80
(g87
g82
Ntp1274
Rp1275
(lp1276
g80
(g91
g82
Ntp1277
Rp1278
(lp1279
I0
aI1
abag95
ag1237
abag80
(g87
g82
Ntp1280
Rp1281
(lp1282
g80
(g91
g82
Ntp1283
Rp1284
(lp1285
I1
aI2
abag95
ag1247
abag80
(g87
g82
Ntp1286
Rp1287
(lp1288
g80
(g91
g82
Ntp1289
Rp1290
(lp1291
I0
aI2
abag95
ag1257
abaabsbsS'task13'
p1292
(iclasses.tasks.task
Task
p1293
(dp1294
g4
I00
sg5
g1292
sg6
I307
sg7
I00
sg8
(lp1295
(iclasses.tasks.sub_task
SubTask
p1296
(dp1297
g12
Nsg13
Nsg14
S'task13_0_1'
p1298
sg16
I00
sg17
S'b1'
p1299
sg19
g1292
sg20
Nsg36
g21
(g22
(I0
tp1300
g24
tp1301
Rp1302
(I1
(I2
tp1303
g31
I00
S'\x00\x00\x00\x00\x00\x00\x00\x00\x01\x00\x00\x00\x00\x00\x00\x00'
p1304
tp1305
bsg43
Nsg44
Nsg51
Nsg53
I00
sg4
I00
sba(iclasses.tasks.sub_task
SubTask
p1306
(dp1307
g12
Nsg13
Nsg14
S'task13_0_2'
p1308
sg16
I00
sg17
S'b1'
p1309
sg19
g1292
sg20
Nsg36
g21
(g22
(I0
tp1310
g24
tp1311
Rp1312
(I1
(I2
tp1313
g31
I00
S'\x00\x00\x00\x00\x00\x00\x00\x00\x02\x00\x00\x00\x00\x00\x00\x00'
p1314
tp1315
bsg43
Nsg44
Nsg51
Nsg53
I00
sg4
I00
sba(iclasses.tasks.sub_task
SubTask
p1316
(dp1317
g12
Nsg13
Nsg14
S'task13_-1_2'
p1318
sg16
I00
sg17
S'b1'
p1319
sg19
g1292
sg20
Nsg36
g21
(g22
(I0
tp1320
g24
tp1321
Rp1322
(I1
(I2
tp1323
g31
I00
S'\xff\xff\xff\xff\xff\xff\xff\xff\x02\x00\x00\x00\x00\x00\x00\x00'
p1324
tp1325
bsg43
Nsg44
Nsg51
Nsg53
I00
sg4
I00
sbasg77
I90
sg78
I01
sg79
g80
(g81
g82
Ntp1326
Rp1327
(lp1328
I307
ag1292
aI90
a(lp1329
g80
(g87
g82
Ntp1330
Rp1331
(lp1332
g80
(g91
g82
Ntp1333
Rp1334
(lp1335
I0
aI1
abag95
ag1299
abag80
(g87
g82
Ntp1336
Rp1337
(lp1338
g80
(g91
g82
Ntp1339
Rp1340
(lp1341
I0
aI2
abag95
ag1309
abag80
(g87
g82
Ntp1342
Rp1343
(lp1344
g80
(g91
g82
Ntp1345
Rp1346
(lp1347
I-1
aI2
abag95
ag1319
abaabsbsS'task10'
p1348
(iclasses.tasks.task
Task
p1349
(dp1350
g4
I00
sg5
g1348
sg6
I355
sg7
I00
sg8
(lp1351
(iclasses.tasks.sub_task
SubTask
p1352
(dp1353
g12
Nsg13
Nsg14
S'task10_0_1'
p1354
sg16
I00
sg17
S'b0'
p1355
sg19
g1348
sg20
Nsg36
g21
(g22
(I0
tp1356
g24
tp1357
Rp1358
(I1
(I2
tp1359
g31
I00
S'\x00\x00\x00\x00\x00\x00\x00\x00\x01\x00\x00\x00\x00\x00\x00\x00'
p1360
tp1361
bsg43
Nsg44
Nsg51
Nsg53
I00
sg4
I00
sba(iclasses.tasks.sub_task
SubTask
p1362
(dp1363
g12
Nsg13
Nsg14
S'task10_0_2'
p1364
sg16
I00
sg17
S'b2'
p1365
sg19
g1348
sg20
Nsg36
g21
(g22
(I0
tp1366
g24
tp1367
Rp1368
(I1
(I2
tp1369
g31
I00
S'\x00\x00\x00\x00\x00\x00\x00\x00\x02\x00\x00\x00\x00\x00\x00\x00'
p1370
tp1371
bsg43
Nsg44
Nsg51
Nsg53
I00
sg4
I00
sba(iclasses.tasks.sub_task
SubTask
p1372
(dp1373
g12
Nsg13
Nsg14
S'task10_1_2'
p1374
sg16
I00
sg17
S'b2'
p1375
sg19
g1348
sg20
Nsg36
g21
(g22
(I0
tp1376
g24
tp1377
Rp1378
(I1
(I2
tp1379
g31
I00
S'\x01\x00\x00\x00\x00\x00\x00\x00\x02\x00\x00\x00\x00\x00\x00\x00'
p1380
tp1381
bsg43
Nsg44
Nsg51
Nsg53
I00
sg4
I00
sbasg77
I90
sg78
I00
sg79
g80
(g81
g82
Ntp1382
Rp1383
(lp1384
I355
ag1348
aI90
a(lp1385
g80
(g87
g82
Ntp1386
Rp1387
(lp1388
g80
(g91
g82
Ntp1389
Rp1390
(lp1391
I0
aI1
abag95
ag1355
abag80
(g87
g82
Ntp1392
Rp1393
(lp1394
g80
(g91
g82
Ntp1395
Rp1396
(lp1397
I0
aI2
abag95
ag1365
abag80
(g87
g82
Ntp1398
Rp1399
(lp1400
g80
(g91
g82
Ntp1401
Rp1402
(lp1403
I1
aI2
abag95
ag1375
abaabsbsS'task11'
p1404
(iclasses.tasks.task
Task
p1405
(dp1406
g4
I00
sg5
g1404
sg6
I298
sg7
I00
sg8
(lp1407
(iclasses.tasks.sub_task
SubTask
p1408
(dp1409
g12
Nsg13
Nsg14
S'task11_0_2'
p1410
sg16
I00
sg17
S'b0'
p1411
sg19
g1404
sg20
Nsg36
g21
(g22
(I0
tp1412
g24
tp1413
Rp1414
(I1
(I2
tp1415
g31
I00
S'\x00\x00\x00\x00\x00\x00\x00\x00\x02\x00\x00\x00\x00\x00\x00\x00'
p1416
tp1417
bsg43
Nsg44
Nsg51
Nsg53
I00
sg4
I00
sba(iclasses.tasks.sub_task
SubTask
p1418
(dp1419
g12
Nsg13
Nsg14
S'task11_0_1'
p1420
sg16
I00
sg17
S'b0'
p1421
sg19
g1404
sg20
Nsg36
g21
(g22
(I0
tp1422
g24
tp1423
Rp1424
(I1
(I2
tp1425
g31
I00
S'\x00\x00\x00\x00\x00\x00\x00\x00\x01\x00\x00\x00\x00\x00\x00\x00'
p1426
tp1427
bsg43
Nsg44
Nsg51
Nsg53
I00
sg4
I00
sba(iclasses.tasks.sub_task
SubTask
p1428
(dp1429
g12
Nsg13
Nsg14
S'task11_1_2'
p1430
sg16
I00
sg17
S'b0'
p1431
sg19
g1404
sg20
Nsg36
g21
(g22
(I0
tp1432
g24
tp1433
Rp1434
(I1
(I2
tp1435
g31
I00
S'\x01\x00\x00\x00\x00\x00\x00\x00\x02\x00\x00\x00\x00\x00\x00\x00'
p1436
tp1437
bsg43
Nsg44
Nsg51
Nsg53
I00
sg4
I00
sbasg77
I90
sg78
I01
sg79
g80
(g81
g82
Ntp1438
Rp1439
(lp1440
I298
ag1404
aI90
a(lp1441
g80
(g87
g82
Ntp1442
Rp1443
(lp1444
g80
(g91
g82
Ntp1445
Rp1446
(lp1447
I0
aI2
abag95
ag1411
abag80
(g87
g82
Ntp1448
Rp1449
(lp1450
g80
(g91
g82
Ntp1451
Rp1452
(lp1453
I0
aI1
abag95
ag1421
abag80
(g87
g82
Ntp1454
Rp1455
(lp1456
g80
(g91
g82
Ntp1457
Rp1458
(lp1459
I1
aI2
abag95
ag1431
abaabsbsS'task16'
p1460
(iclasses.tasks.task
Task
p1461
(dp1462
g4
I00
sg5
g1460
sg6
I424
sg7
I00
sg8
(lp1463
(iclasses.tasks.sub_task
SubTask
p1464
(dp1465
g12
Nsg13
Nsg14
S'task16_-1_2'
p1466
sg16
I00
sg17
S'b2'
p1467
sg19
g1460
sg20
Nsg36
g21
(g22
(I0
tp1468
g24
tp1469
Rp1470
(I1
(I2
tp1471
g31
I00
S'\xff\xff\xff\xff\xff\xff\xff\xff\x02\x00\x00\x00\x00\x00\x00\x00'
p1472
tp1473
bsg43
Nsg44
Nsg51
Nsg53
I00
sg4
I00
sba(iclasses.tasks.sub_task
SubTask
p1474
(dp1475
g12
Nsg13
Nsg14
S'task16_-1_1'
p1476
sg16
I00
sg17
S'b2'
p1477
sg19
g1460
sg20
Nsg36
g21
(g22
(I0
tp1478
g24
tp1479
Rp1480
(I1
(I2
tp1481
g31
I00
S'\xff\xff\xff\xff\xff\xff\xff\xff\x01\x00\x00\x00\x00\x00\x00\x00'
p1482
tp1483
bsg43
Nsg44
Nsg51
Nsg53
I00
sg4
I00
sba(iclasses.tasks.sub_task
SubTask
p1484
(dp1485
g12
Nsg13
Nsg14
S'task16_0_1'
p1486
sg16
I00
sg17
S'b0'
p1487
sg19
g1460
sg20
Nsg36
g21
(g22
(I0
tp1488
g24
tp1489
Rp1490
(I1
(I2
tp1491
g31
I00
S'\x00\x00\x00\x00\x00\x00\x00\x00\x01\x00\x00\x00\x00\x00\x00\x00'
p1492
tp1493
bsg43
Nsg44
Nsg51
Nsg53
I00
sg4
I00
sbasg77
I90
sg78
I00
sg79
g80
(g81
g82
Ntp1494
Rp1495
(lp1496
I424
ag1460
aI90
a(lp1497
g80
(g87
g82
Ntp1498
Rp1499
(lp1500
g80
(g91
g82
Ntp1501
Rp1502
(lp1503
I-1
aI2
abag95
ag1467
abag80
(g87
g82
Ntp1504
Rp1505
(lp1506
g80
(g91
g82
Ntp1507
Rp1508
(lp1509
I-1
aI1
abag95
ag1477
abag80
(g87
g82
Ntp1510
Rp1511
(lp1512
g80
(g91
g82
Ntp1513
Rp1514
(lp1515
I0
aI1
abag95
ag1487
abaabsbsS'task17'
p1516
(iclasses.tasks.task
Task
p1517
(dp1518
g4
I00
sg5
g1516
sg6
I376
sg7
I00
sg8
(lp1519
(iclasses.tasks.sub_task
SubTask
p1520
(dp1521
g12
Nsg13
Nsg14
S'task17_0_1'
p1522
sg16
I00
sg17
S'b0'
p1523
sg19
g1516
sg20
Nsg36
g21
(g22
(I0
tp1524
g24
tp1525
Rp1526
(I1
(I2
tp1527
g31
I00
S'\x00\x00\x00\x00\x00\x00\x00\x00\x01\x00\x00\x00\x00\x00\x00\x00'
p1528
tp1529
bsg43
Nsg44
Nsg51
Nsg53
I00
sg4
I00
sba(iclasses.tasks.sub_task
SubTask
p1530
(dp1531
g12
Nsg13
Nsg14
S'task17_0_2'
p1532
sg16
I00
sg17
S'b1'
p1533
sg19
g1516
sg20
Nsg36
g21
(g22
(I0
tp1534
g24
tp1535
Rp1536
(I1
(I2
tp1537
g31
I00
S'\x00\x00\x00\x00\x00\x00\x00\x00\x02\x00\x00\x00\x00\x00\x00\x00'
p1538
tp1539
bsg43
Nsg44
Nsg51
Nsg53
I00
sg4
I00
sba(iclasses.tasks.sub_task
SubTask
p1540
(dp1541
g12
Nsg13
Nsg14
S'task17_-1_2'
p1542
sg16
I00
sg17
S'b1'
p1543
sg19
g1516
sg20
Nsg36
g21
(g22
(I0
tp1544
g24
tp1545
Rp1546
(I1
(I2
tp1547
g31
I00
S'\xff\xff\xff\xff\xff\xff\xff\xff\x02\x00\x00\x00\x00\x00\x00\x00'
p1548
tp1549
bsg43
Nsg44
Nsg51
Nsg53
I00
sg4
I00
sbasg77
I90
sg78
I00
sg79
g80
(g81
g82
Ntp1550
Rp1551
(lp1552
I376
ag1516
aI90
a(lp1553
g80
(g87
g82
Ntp1554
Rp1555
(lp1556
g80
(g91
g82
Ntp1557
Rp1558
(lp1559
I0
aI1
abag95
ag1523
abag80
(g87
g82
Ntp1560
Rp1561
(lp1562
g80
(g91
g82
Ntp1563
Rp1564
(lp1565
I0
aI2
abag95
ag1533
abag80
(g87
g82
Ntp1566
Rp1567
(lp1568
g80
(g91
g82
Ntp1569
Rp1570
(lp1571
I-1
aI2
abag95
ag1543
abaabsbsS'task14'
p1572
(iclasses.tasks.task
Task
p1573
(dp1574
g4
I00
sg5
g1572
sg6
I400
sg7
I00
sg8
(lp1575
(iclasses.tasks.sub_task
SubTask
p1576
(dp1577
g12
Nsg13
Nsg14
S'task14_1_1'
p1578
sg16
I00
sg17
S'b0'
p1579
sg19
g1572
sg20
Nsg36
g21
(g22
(I0
tp1580
g24
tp1581
Rp1582
(I1
(I2
tp1583
g31
I00
S'\x01\x00\x00\x00\x00\x00\x00\x00\x01\x00\x00\x00\x00\x00\x00\x00'
p1584
tp1585
bsg43
Nsg44
Nsg51
Nsg53
I00
sg4
I00
sba(iclasses.tasks.sub_task
SubTask
p1586
(dp1587
g12
Nsg13
Nsg14
S'task14_0_2'
p1588
sg16
I00
sg17
S'b2'
p1589
sg19
g1572
sg20
Nsg36
g21
(g22
(I0
tp1590
g24
tp1591
Rp1592
(I1
(I2
tp1593
g31
I00
S'\x00\x00\x00\x00\x00\x00\x00\x00\x02\x00\x00\x00\x00\x00\x00\x00'
p1594
tp1595
bsg43
Nsg44
Nsg51
Nsg53
I00
sg4
I00
sba(iclasses.tasks.sub_task
SubTask
p1596
(dp1597
g12
Nsg13
Nsg14
S'task14_0_1'
p1598
sg16
I00
sg17
S'b0'
p1599
sg19
g1572
sg20
Nsg36
g21
(g22
(I0
tp1600
g24
tp1601
Rp1602
(I1
(I2
tp1603
g31
I00
S'\x00\x00\x00\x00\x00\x00\x00\x00\x01\x00\x00\x00\x00\x00\x00\x00'
p1604
tp1605
bsg43
Nsg44
Nsg51
Nsg53
I00
sg4
I00
sba(iclasses.tasks.sub_task
SubTask
p1606
(dp1607
g12
Nsg13
Nsg14
S'task14_1_2'
p1608
sg16
I00
sg17
S'b0'
p1609
sg19
g1572
sg20
Nsg36
g21
(g22
(I0
tp1610
g24
tp1611
Rp1612
(I1
(I2
tp1613
g31
I00
S'\x01\x00\x00\x00\x00\x00\x00\x00\x02\x00\x00\x00\x00\x00\x00\x00'
p1614
tp1615
bsg43
Nsg44
Nsg51
Nsg53
I00
sg4
I00
sbasg77
I160
sg78
I00
sg79
g80
(g81
g82
Ntp1616
Rp1617
(lp1618
I400
ag1572
aI160
a(lp1619
g80
(g87
g82
Ntp1620
Rp1621
(lp1622
g80
(g91
g82
Ntp1623
Rp1624
(lp1625
I1
aI1
abag95
ag1579
abag80
(g87
g82
Ntp1626
Rp1627
(lp1628
g80
(g91
g82
Ntp1629
Rp1630
(lp1631
I0
aI2
abag95
ag1589
abag80
(g87
g82
Ntp1632
Rp1633
(lp1634
g80
(g91
g82
Ntp1635
Rp1636
(lp1637
I0
aI1
abag95
ag1599
abag80
(g87
g82
Ntp1638
Rp1639
(lp1640
g80
(g91
g82
Ntp1641
Rp1642
(lp1643
I1
aI2
abag95
ag1609
abaabsbsS'task15'
p1644
(iclasses.tasks.task
Task
p1645
(dp1646
g4
I00
sg5
g1644
sg6
I350
sg7
I00
sg8
(lp1647
(iclasses.tasks.sub_task
SubTask
p1648
(dp1649
g12
Nsg13
Nsg14
S'task15_1_1'
p1650
sg16
I00
sg17
S'b1'
p1651
sg19
g1644
sg20
Nsg36
g21
(g22
(I0
tp1652
g24
tp1653
Rp1654
(I1
(I2
tp1655
g31
I00
S'\x01\x00\x00\x00\x00\x00\x00\x00\x01\x00\x00\x00\x00\x00\x00\x00'
p1656
tp1657
bsg43
Nsg44
Nsg51
Nsg53
I00
sg4
I00
sba(iclasses.tasks.sub_task
SubTask
p1658
(dp1659
g12
Nsg13
Nsg14
S'task15_0_2'
p1660
sg16
I00
sg17
S'b0'
p1661
sg19
g1644
sg20
Nsg36
g21
(g22
(I0
tp1662
g24
tp1663
Rp1664
(I1
(I2
tp1665
g31
I00
S'\x00\x00\x00\x00\x00\x00\x00\x00\x02\x00\x00\x00\x00\x00\x00\x00'
p1666
tp1667
bsg43
Nsg44
Nsg51
Nsg53
I00
sg4
I00
sba(iclasses.tasks.sub_task
SubTask
p1668
(dp1669
g12
Nsg13
Nsg14
S'task15_0_1'
p1670
sg16
I00
sg17
S'b0'
p1671
sg19
g1644
sg20
Nsg36
g21
(g22
(I0
tp1672
g24
tp1673
Rp1674
(I1
(I2
tp1675
g31
I00
S'\x00\x00\x00\x00\x00\x00\x00\x00\x01\x00\x00\x00\x00\x00\x00\x00'
p1676
tp1677
bsg43
Nsg44
Nsg51
Nsg53
I00
sg4
I00
sbasg77
I90
sg78
I00
sg79
g80
(g81
g82
Ntp1678
Rp1679
(lp1680
I350
ag1644
aI90
a(lp1681
g80
(g87
g82
Ntp1682
Rp1683
(lp1684
g80
(g91
g82
Ntp1685
Rp1686
(lp1687
I1
aI1
abag95
ag1651
abag80
(g87
g82
Ntp1688
Rp1689
(lp1690
g80
(g91
g82
Ntp1691
Rp1692
(lp1693
I0
aI2
abag95
ag1661
abag80
(g87
g82
Ntp1694
Rp1695
(lp1696
g80
(g91
g82
Ntp1697
Rp1698
(lp1699
I0
aI1
abag95
ag1671
abaabsbs.