(dp0
S'task1'
p1
(iclasses.tasks.task
Task
p2
(dp3
S'complete'
p4
I00
sS'name'
p5
g1
sS'deadline'
p6
I999
sS'auctioned'
p7
I01
sS'sub_tasks'
p8
(lp9
(iclasses.tasks.sub_task
SubTask
p10
(dp11
S'path_to_dispenser_id'
p12
I1195715
sS'distance_to_dispenser'
p13
I2
sS'sub_task_name'
p14
S'task1_-2_2'
p15
sS'submit_behaviour'
p16
I00
sS'type'
p17
S'b0'
p18
sS'parent_task_name'
p19
g1
sS'meeting_point'
p20
cnumpy.core.multiarray
_reconstruct
p21
(cnumpy
ndarray
p22
(I0
tp23
S'b'
p24
tp25
Rp26
(I1
(I2
tp27
cnumpy
dtype
p28
(S'i8'
p29
I0
I1
tp30
Rp31
(I3
S'<'
p32
NNNI-1
I-1
I0
tp33
bI00
S'\x00\x00\x00\x00\x00\x00\x00\x00\x01\x00\x00\x00\x00\x00\x00\x00'
p34
tp35
bsS'position'
p36
g21
(g22
(I0
tp37
g24
tp38
Rp39
(I1
(I2
tp40
g31
I00
S'\xfe\xff\xff\xff\xff\xff\xff\xff\x02\x00\x00\x00\x00\x00\x00\x00'
p41
tp42
bsS'path_to_meeting_point_id'
p43
NsS'closest_dispenser_position'
p44
g21
(g22
(I0
tp45
g24
tp46
Rp47
(I1
(I2
tp48
g31
I00
S'\x08\x00\x00\x00\x00\x00\x00\x00\xf9\xff\xff\xff\xff\xff\xff\xff'
p49
tp50
bsS'assigned_agent'
p51
S'agentA2'
p52
sS'is_connected'
p53
I00
sg4
I00
sba(iclasses.tasks.sub_task
SubTask
p54
(dp55
g12
I151362
sg13
I3
sg14
S'task1_-3_2'
p56
sg16
I00
sg17
S'b1'
p57
sg19
g1
sg20
g21
(g22
(I0
tp58
g24
tp59
Rp60
(I1
(I2
tp61
g31
I00
S'\x00\x00\x00\x00\x00\x00\x00\x00\x01\x00\x00\x00\x00\x00\x00\x00'
p62
tp63
bsg36
g21
(g22
(I0
tp64
g24
tp65
Rp66
(I1
(I2
tp67
g31
I00
S'\xfd\xff\xff\xff\xff\xff\xff\xff\x02\x00\x00\x00\x00\x00\x00\x00'
p68
tp69
bsg43
Nsg44
g21
(g22
(I0
tp70
g24
tp71
Rp72
(I1
(I2
tp73
g31
I00
S'\x01\x00\x00\x00\x00\x00\x00\x00\xfa\xff\xff\xff\xff\xff\xff\xff'
p74
tp75
bsg51
S'agentA1'
p76
sg53
I00
sg4
I00
sba(iclasses.tasks.sub_task
SubTask
p77
(dp78
g12
I3893529
sg13
I1
sg14
S'task1_-1_1'
p79
sg16
I00
sg17
S'b1'
p80
sg19
g1
sg20
g21
(g22
(I0
tp81
g24
tp82
Rp83
(I1
(I2
tp84
g31
I00
S'\x00\x00\x00\x00\x00\x00\x00\x00\x01\x00\x00\x00\x00\x00\x00\x00'
p85
tp86
bsg36
g21
(g22
(I0
tp87
g24
tp88
Rp89
(I1
(I2
tp90
g31
I00
S'\xff\xff\xff\xff\xff\xff\xff\xff\x01\x00\x00\x00\x00\x00\x00\x00'
p91
tp92
bsg43
Nsg44
g21
(g22
(I0
tp93
g24
tp94
Rp95
(I1
(I2
tp96
g31
I00
S'\x01\x00\x00\x00\x00\x00\x00\x00\xfa\xff\xff\xff\xff\xff\xff\xff'
p97
tp98
bsg51
S'agentA5'
p99
sg53
I00
sg4
I00
sba(iclasses.tasks.sub_task
SubTask
p100
(dp101
g12
I6758105
sg13
I3
sg14
S'task1_-2_1'
p102
sg16
I00
sg17
S'b2'
p103
sg19
g1
sg20
g21
(g22
(I0
tp104
g24
tp105
Rp106
(I1
(I2
tp107
g31
I00
S'\x00\x00\x00\x00\x00\x00\x00\x00\x01\x00\x00\x00\x00\x00\x00\x00'
p108
tp109
bsg36
g21
(g22
(I0
tp110
g24
tp111
Rp112
(I1
(I2
tp113
g31
I00
S'\xfe\xff\xff\xff\xff\xff\xff\xff\x01\x00\x00\x00\x00\x00\x00\x00'
p114
tp115
bsg43
Nsg44
g21
(g22
(I0
tp116
g24
tp117
Rp118
(I1
(I2
tp119
g31
I00
S'\x02\x00\x00\x00\x00\x00\x00\x00\xfe\xff\xff\xff\xff\xff\xff\xff'
p120
tp121
bsg51
S'agentA4'
p122
sg53
I00
sg4
I00
sba(iclasses.tasks.sub_task
SubTask
p123
(dp124
g12
I8453693
sg13
I3
sg14
S'task1_-1_0'
p125
sg16
I01
sg17
S'b0'
p126
sg19
g1
sg20
g21
(g22
(I0
tp127
g24
tp128
Rp129
(I1
(I2
tp130
g31
I00
S'\x00\x00\x00\x00\x00\x00\x00\x00\x01\x00\x00\x00\x00\x00\x00\x00'
p131
tp132
bsg36
g21
(g22
(I0
tp133
g24
tp134
Rp135
(I1
(I2
tp136
g31
I00
S'\xff\xff\xff\xff\xff\xff\xff\xff\x00\x00\x00\x00\x00\x00\x00\x00'
p137
tp138
bsg43
Nsg44
g21
(g22
(I0
tp139
g24
tp140
Rp141
(I1
(I2
tp142
g31
I00
S'\x00\x00\x00\x00\x00\x00\x00\x00\xf9\xff\xff\xff\xff\xff\xff\xff'
p143
tp144
bsg51
S'agentA3'
p145
sg53
I00
sg4
I00
sbasS'reward'
p146
I250
sS'expired'
p147
I00
sS'task_percept'
p148
ccopy_reg
_reconstructor
p149
(cmapc_ros_bridge.msg._Task
Task
p150
c__builtin__
object
p151
Ntp152
Rp153
(lp154
I999
ag1
aI250
a(lp155
g149
(cmapc_ros_bridge.msg._Requirement
Requirement
p156
g151
Ntp157
Rp158
(lp159
g149
(cmapc_ros_bridge.msg._Position
Position
p160
g151
Ntp161
Rp162
(lp163
I-2
aI2
abaS''
p164
ag18
abag149
(g156
g151
Ntp165
Rp166
(lp167
g149
(g160
g151
Ntp168
Rp169
(lp170
I-3
aI2
abag164
ag57
abag149
(g156
g151
Ntp171
Rp172
(lp173
g149
(g160
g151
Ntp174
Rp175
(lp176
I-1
aI1
abag164
ag80
abag149
(g156
g151
Ntp177
Rp178
(lp179
g149
(g160
g151
Ntp180
Rp181
(lp182
I-2
aI1
abag164
ag103
abag149
(g156
g151
Ntp183
Rp184
(lp185
g149
(g160
g151
Ntp186
Rp187
(lp188
I-1
aI0
abag164
ag126
abaabsbs.